target datalayout = "e-m:e-p270:32:32-p271:32:32-p272:64:64-i64:64-i128:128-f80:128-n8:16:32:64-S128"
target triple = "x86_64-pc-linux-gnu"

%struct._address = type { i32, i32, ptr, ptr }

@.str.44 = private unnamed_addr constant [4 x i8] c"%lu\00", align 1
@.str.45 = private unnamed_addr constant [3 x i8] c"%u\00", align 1

; Function Attrs: null_pointer_is_valid sspstrong uwtable
define internal i32 @numeric_addr_to_str(ptr noundef %0, ptr noundef %1, i32 noundef %2) #3 {
  %4 = alloca ptr, align 8
  %5 = alloca ptr, align 8
  %6 = alloca i32, align 4
  %7 = alloca i32, align 4
  store ptr %0, ptr %4, align 8
  store ptr %1, ptr %5, align 8
  store i32 %2, ptr %6, align 4
  call void @llvm.lifetime.start.p0(i64 4, ptr %7) #12
  %8 = load ptr, ptr %4, align 8
  %9 = getelementptr inbounds nuw %struct._address, ptr %8, i32 0, i32 1
  %10 = load i32, ptr %9, align 4
  %11 = icmp eq i32 %10, 8
  br i1 %11, label %12, label %23

12:                                               ; preds = %3
  %13 = load ptr, ptr %5, align 8
  %14 = load i32, ptr %6, align 4
  %15 = sext i32 %14 to i64
  %16 = load ptr, ptr %5, align 8
  %17 = call i64 @llvm.objectsize.i64.p0(ptr %16, i1 false, i1 true, i1 true)
  %18 = load ptr, ptr %4, align 8
  %19 = getelementptr inbounds nuw %struct._address, ptr %18, i32 0, i32 2
  %20 = load ptr, ptr %19, align 8
  %21 = load i64, ptr %20, align 8
  %22 = call i32 (ptr, i64, i32, i64, ptr, ...) @__snprintf_chk(ptr noundef %13, i64 noundef %15, i32 noundef 2, i64 noundef %17, ptr noundef @.str.44, i64 noundef %21)
  store i32 %22, ptr %7, align 4
  br label %70

23:                                               ; preds = %3
  %24 = load ptr, ptr %4, align 8
  %25 = getelementptr inbounds nuw %struct._address, ptr %24, i32 0, i32 1
  %26 = load i32, ptr %25, align 4
  %27 = icmp eq i32 %26, 4
  br i1 %27, label %28, label %39

28:                                               ; preds = %23
  %29 = load ptr, ptr %5, align 8
  %30 = load i32, ptr %6, align 4
  %31 = sext i32 %30 to i64
  %32 = load ptr, ptr %5, align 8
  %33 = call i64 @llvm.objectsize.i64.p0(ptr %32, i1 false, i1 true, i1 true)
  %34 = load ptr, ptr %4, align 8
  %35 = getelementptr inbounds nuw %struct._address, ptr %34, i32 0, i32 2
  %36 = load ptr, ptr %35, align 8
  %37 = load i32, ptr %36, align 4
  %38 = call i32 (ptr, i64, i32, i64, ptr, ...) @__snprintf_chk(ptr noundef %29, i64 noundef %31, i32 noundef 2, i64 noundef %33, ptr noundef @.str.45, i32 noundef %37)
  store i32 %38, ptr %7, align 4
  br label %69

39:                                               ; preds = %23
  %40 = load ptr, ptr %4, align 8
  %41 = getelementptr inbounds nuw %struct._address, ptr %40, i32 0, i32 1
  %42 = load i32, ptr %41, align 4
  %43 = icmp eq i32 %42, 2
  br i1 %43, label %44, label %56

44:                                               ; preds = %39
  %45 = load ptr, ptr %5, align 8
  %46 = load i32, ptr %6, align 4
  %47 = sext i32 %46 to i64
  %48 = load ptr, ptr %5, align 8
  %49 = call i64 @llvm.objectsize.i64.p0(ptr %48, i1 false, i1 true, i1 true)
  %50 = load ptr, ptr %4, align 8
  %51 = getelementptr inbounds nuw %struct._address, ptr %50, i32 0, i32 2
  %52 = load ptr, ptr %51, align 8
  %53 = load i16, ptr %52, align 2
  %54 = zext i16 %53 to i32
  %55 = call i32 (ptr, i64, i32, i64, ptr, ...) @__snprintf_chk(ptr noundef %45, i64 noundef %47, i32 noundef 2, i64 noundef %49, ptr noundef @.str.45, i32 noundef %54)
  store i32 %55, ptr %7, align 4
  br label %68

56:                                               ; preds = %39
  %57 = load ptr, ptr %5, align 8
  %58 = load i32, ptr %6, align 4
  %59 = sext i32 %58 to i64
  %60 = load ptr, ptr %5, align 8
  %61 = call i64 @llvm.objectsize.i64.p0(ptr %60, i1 false, i1 true, i1 true)
  %62 = load ptr, ptr %4, align 8
  %63 = getelementptr inbounds nuw %struct._address, ptr %62, i32 0, i32 2
  %64 = load ptr, ptr %63, align 8
  %65 = load i8, ptr %64, align 1
  %66 = zext i8 %65 to i32
  %67 = call i32 (ptr, i64, i32, i64, ptr, ...) @__snprintf_chk(ptr noundef %57, i64 noundef %59, i32 noundef 2, i64 noundef %61, ptr noundef @.str.45, i32 noundef %66)
  store i32 %67, ptr %7, align 4
  br label %68

68:                                               ; preds = %56, %44
  br label %69

69:                                               ; preds = %68, %28
  br label %70

70:                                               ; preds = %69, %12
  %71 = load i32, ptr %7, align 4
  %72 = add i32 %71, 1
  call void @llvm.lifetime.end.p0(i64 4, ptr %7) #12
  ret i32 %72
}