; Function Attrs: nofree null_pointer_is_valid sspstrong uwtable
define internal i32 @numeric_addr_to_str(ptr noundef readonly captures(none) %0, ptr noundef %1, i32 noundef %2) #10 {
  %4 = getelementptr inbounds nuw i8, ptr %0, i64 4
  %5 = load i32, ptr %4, align 4
  %6 = sext i32 %2 to i64
  %7 = getelementptr inbounds nuw i8, ptr %0, i64 8
  %8 = load ptr, ptr %7, align 8
  switch i32 %5, label %19 [
    i32 8, label %9
    i32 4, label %12
    i32 2, label %15
  ]

9:                                                ; preds = %3
  %10 = load i64, ptr %8, align 8
  %11 = tail call i32 (ptr, i64, i32, i64, ptr, ...) @__snprintf_chk(ptr noundef %1, i64 noundef %6, i32 noundef 2, i64 noundef -1, ptr noundef nonnull @.str.44, i64 noundef %10)
  br label %23

12:                                               ; preds = %3
  %13 = load i32, ptr %8, align 4
  %14 = tail call i32 (ptr, i64, i32, i64, ptr, ...) @__snprintf_chk(ptr noundef %1, i64 noundef %6, i32 noundef 2, i64 noundef -1, ptr noundef nonnull @.str.45, i32 noundef %13)
  br label %23

15:                                               ; preds = %3
  %16 = load i16, ptr %8, align 2
  %17 = zext i16 %16 to i32
  %18 = tail call i32 (ptr, i64, i32, i64, ptr, ...) @__snprintf_chk(ptr noundef %1, i64 noundef %6, i32 noundef 2, i64 noundef -1, ptr noundef nonnull @.str.45, i32 noundef %17)
  br label %23

19:                                               ; preds = %3
  %20 = load i8, ptr %8, align 1
  %21 = zext i8 %20 to i32
  %22 = tail call i32 (ptr, i64, i32, i64, ptr, ...) @__snprintf_chk(ptr noundef %1, i64 noundef %6, i32 noundef 2, i64 noundef -1, ptr noundef nonnull @.str.45, i32 noundef %21)
  br label %23

23:                                               ; preds = %12, %19, %15, %9
  %.0 = phi i32 [ %11, %9 ], [ %14, %12 ], [ %18, %15 ], [ %22, %19 ]
  %24 = add i32 %.0, 1
  ret i32 %24
}